; Function Attrs: nofree nounwind memory(argmem: readwrite) uwtable
define i64 @OPENSSL_strlcat(ptr noundef captures(none) %0, ptr noundef readonly captures(none) %1, i64 noundef %2) local_unnamed_addr #7 {
  %.not16 = icmp eq i64 %2, 0
  br i1 %.not16, label %OPENSSL_strlcpy.exit, label %.lr.ph

.lr.ph:                                           ; preds = %3, %5
  %.019 = phi i64 [ %6, %5 ], [ 0, %3 ]
  %.0818 = phi i64 [ %7, %5 ], [ %2, %3 ]
  %.0917 = phi ptr [ %8, %5 ], [ %0, %3 ]
  %4 = load i8, ptr %.0917, align 1, !tbaa !3
  %.not10 = icmp eq i8 %4, 0
  br i1 %.not10, label %.critedge, label %5

5:                                                ; preds = %.lr.ph
  %6 = add nuw i64 %.019, 1
  %7 = add i64 %.0818, -1
  %8 = getelementptr inbounds nuw i8, ptr %.0917, i64 1
  %.not = icmp eq i64 %7, 0
  br i1 %.not, label %OPENSSL_strlcpy.exit, label %.lr.ph, !llvm.loop !9

.critedge:                                        ; preds = %.lr.ph
  %.not11 = icmp eq i64 %.0818, 1
  br i1 %.not11, label %.critedge.thread.i, label %.lr.ph.preheader.i

.lr.ph.preheader.i:                               ; preds = %.critedge
  %9 = add i64 %.0818, -1
  br label %.lr.ph.i

.lr.ph.i:                                         ; preds = %11, %.lr.ph.preheader.i
  %.026.i = phi i64 [ %14, %11 ], [ 0, %.lr.ph.preheader.i ]
  %.01024.i = phi ptr [ %12, %11 ], [ %1, %.lr.ph.preheader.i ]
  %.01123.i = phi ptr [ %13, %11 ], [ %.0917, %.lr.ph.preheader.i ]
  %10 = load i8, ptr %.01024.i, align 1, !tbaa !3
  %.not.i = icmp eq i8 %10, 0
  br i1 %.not.i, label %.critedge.thread.i, label %11

11:                                               ; preds = %.lr.ph.i
  %12 = getelementptr inbounds nuw i8, ptr %.01024.i, i64 1
  %13 = getelementptr inbounds nuw i8, ptr %.01123.i, i64 1
  store i8 %10, ptr %.01123.i, align 1, !tbaa !3
  %14 = add nuw i64 %.026.i, 1
  %exitcond.not.i = icmp eq i64 %14, %9
  br i1 %exitcond.not.i, label %.critedge.thread.i, label %.lr.ph.i, !llvm.loop !8

.critedge.thread.i:                               ; preds = %11, %.lr.ph.i, %.critedge
  %.01122.i = phi ptr [ %.0917, %.critedge ], [ %.01123.i, %.lr.ph.i ], [ %13, %11 ]
  %.01019.i = phi ptr [ %1, %.critedge ], [ %.01024.i, %.lr.ph.i ], [ %12, %11 ]
  %.015.i = phi i64 [ 0, %.critedge ], [ %.026.i, %.lr.ph.i ], [ %9, %11 ]
  store i8 0, ptr %.01122.i, align 1, !tbaa !3
  br label %OPENSSL_strlcpy.exit

OPENSSL_strlcpy.exit:                             ; preds = %5, %3, %.critedge.thread.i
  %.013 = phi i64 [ %.019, %.critedge.thread.i ], [ 0, %3 ], [ %2, %5 ]
  %.01020.i = phi ptr [ %.01019.i, %.critedge.thread.i ], [ %1, %3 ], [ %1, %5 ]
  %.016.i = phi i64 [ %.015.i, %.critedge.thread.i ], [ 0, %3 ], [ 0, %5 ]
  %15 = tail call i64 @strlen(ptr noundef nonnull dereferenceable(1) %.01020.i) #15
  %16 = add i64 %.016.i, %.013
  %17 = add i64 %16, %15
  ret i64 %17
}